target datalayout = "e-m:e-p270:32:32-p271:32:32-p272:64:64-i64:64-i128:128-f80:128-n8:16:32:64-S128"
target triple = "x86_64-pc-linux-gnu"

%struct.BlockInfo = type { i64, i64 }

@blocks = internal global ptr null, align 8

; Function Attrs: nounwind sspstrong uwtable
define internal void @vcpu_tb_trans(i64 noundef %0, ptr noundef %1) #0 {
  %3 = alloca i64, align 8
  %4 = alloca ptr, align 8
  %5 = alloca ptr, align 8
  %6 = alloca i64, align 8
  %7 = alloca i64, align 8
  %8 = alloca ptr, align 8
  %9 = alloca ptr, align 8
  store i64 %0, ptr %3, align 8
  store ptr %1, ptr %4, align 8
  call void @llvm.lifetime.start.p0(i64 8, ptr %5) #11
  call void @llvm.lifetime.start.p0(i64 8, ptr %6) #11
  store i64 1, ptr %6, align 8
  call void @llvm.lifetime.start.p0(i64 8, ptr %7) #11
  store i64 16, ptr %7, align 8
  call void @llvm.lifetime.start.p0(i64 8, ptr %8) #11
  store ptr null, ptr %8, align 8, !annotation !3
  %10 = load i64, ptr %7, align 8
  %11 = icmp eq i64 %10, 1
  br i1 %11, label %12, label %15

12:                                               ; preds = %2
  %13 = load i64, ptr %6, align 8
  %14 = call noalias ptr @g_malloc0(i64 noundef %13) #12
  store ptr %14, ptr %8, align 8
  br label %36

15:                                               ; preds = %2
  %16 = load i64, ptr %6, align 8
  %17 = call i1 @llvm.is.constant.i64(i64 %16)
  br i1 %17, label %18, label %31

18:                                               ; preds = %15
  %19 = load i64, ptr %7, align 8
  %20 = icmp eq i64 %19, 0
  br i1 %20, label %26, label %21

21:                                               ; preds = %18
  %22 = load i64, ptr %6, align 8
  %23 = load i64, ptr %7, align 8
  %24 = udiv i64 -1, %23
  %25 = icmp ule i64 %22, %24
  br i1 %25, label %26, label %31

26:                                               ; preds = %21, %18
  %27 = load i64, ptr %6, align 8
  %28 = load i64, ptr %7, align 8
  %29 = mul i64 %27, %28
  %30 = call noalias ptr @g_malloc0(i64 noundef %29) #12
  store ptr %30, ptr %8, align 8
  br label %35

31:                                               ; preds = %21, %15
  %32 = load i64, ptr %6, align 8
  %33 = load i64, ptr %7, align 8
  %34 = call noalias ptr @g_malloc0_n(i64 noundef %32, i64 noundef %33) #13
  store ptr %34, ptr %8, align 8
  br label %35

35:                                               ; preds = %31, %26
  br label %36

36:                                               ; preds = %35, %12
  %37 = load ptr, ptr %8, align 8
  store ptr %37, ptr %9, align 8
  call void @llvm.lifetime.end.p0(i64 8, ptr %8) #11
  call void @llvm.lifetime.end.p0(i64 8, ptr %7) #11
  call void @llvm.lifetime.end.p0(i64 8, ptr %6) #11
  %38 = load ptr, ptr %9, align 8
  store ptr %38, ptr %5, align 8
  %39 = load ptr, ptr %4, align 8
  %40 = call i64 @qemu_plugin_tb_vaddr(ptr noundef %39)
  %41 = load ptr, ptr %5, align 8
  %42 = getelementptr inbounds nuw %struct.BlockInfo, ptr %41, i32 0, i32 0
  store i64 %40, ptr %42, align 8
  %43 = load ptr, ptr %4, align 8
  %44 = call i64 @qemu_plugin_tb_n_insns(ptr noundef %43)
  %45 = load ptr, ptr %5, align 8
  %46 = getelementptr inbounds nuw %struct.BlockInfo, ptr %45, i32 0, i32 1
  store i64 %44, ptr %46, align 8
  %47 = load ptr, ptr @blocks, align 8
  %48 = load ptr, ptr %5, align 8
  %49 = call ptr @g_slist_prepend(ptr noundef %47, ptr noundef %48)
  store ptr %49, ptr @blocks, align 8
  %50 = load ptr, ptr %4, align 8
  %51 = load ptr, ptr %5, align 8
  call void @qemu_plugin_register_vcpu_tb_exec_cb(ptr noundef %50, ptr noundef @vcpu_tb_exec, i32 noundef 0, ptr noundef %51)
  call void @llvm.lifetime.end.p0(i64 8, ptr %5) #11
  ret void
}