; Function Attrs: nounwind sspstrong uwtable
define internal void @vcpu_tb_trans(i64 %0, ptr noundef %1) #0 {
  %3 = tail call noalias dereferenceable_or_null(16) ptr @g_malloc0(i64 noundef 16) #15
  %4 = tail call i64 @qemu_plugin_tb_vaddr(ptr noundef %1) #11
  store i64 %4, ptr %3, align 8
  %5 = tail call i64 @qemu_plugin_tb_n_insns(ptr noundef %1) #11
  %6 = getelementptr inbounds nuw i8, ptr %3, i64 8
  store i64 %5, ptr %6, align 8
  %7 = load ptr, ptr @blocks, align 8
  %8 = tail call ptr @g_slist_prepend(ptr noundef %7, ptr noundef nonnull %3) #11
  store ptr %8, ptr @blocks, align 8
  tail call void @qemu_plugin_register_vcpu_tb_exec_cb(ptr noundef %1, ptr noundef nonnull @vcpu_tb_exec, i32 noundef 0, ptr noundef nonnull %3) #11
  ret void
}